; Function Attrs: nofree norecurse nosync nounwind memory(readwrite, inaccessiblemem: none) uwtable
define void @Saig_SynchTernaryTransferState(ptr noundef readonly captures(none) %0, ptr noundef readonly captures(none) %1, i32 noundef %2) local_unnamed_addr #2 {
  %4 = getelementptr i8, ptr %0, i64 104
  %.val1925 = load i32, ptr %4, align 8, !tbaa !26
  %5 = icmp sgt i32 %.val1925, 0
  br i1 %5, label %.lr.ph28, label %.critedge

.lr.ph28:                                         ; preds = %3
  %6 = getelementptr i8, ptr %0, i64 24
  %.val20 = load ptr, ptr %6, align 8, !tbaa !40
  %7 = getelementptr i8, ptr %0, i64 112
  %8 = getelementptr i8, ptr %.val20, i64 8
  %.val20.val = load ptr, ptr %8, align 8, !tbaa !3
  %9 = getelementptr i8, ptr %0, i64 16
  %.val22 = load ptr, ptr %9, align 8, !tbaa !27
  %10 = getelementptr i8, ptr %0, i64 108
  %11 = getelementptr i8, ptr %.val22, i64 8
  %.val22.val = load ptr, ptr %11, align 8, !tbaa !3
  %12 = getelementptr i8, ptr %1, i64 8
  %.val18 = load ptr, ptr %12, align 8, !tbaa !3
  %13 = icmp sgt i32 %2, 0
  br i1 %13, label %.lr.ph.us.preheader, label %.critedge

.lr.ph.us.preheader:                              ; preds = %.lr.ph28
  %wide.trip.count = zext nneg i32 %2 to i64
  br label %.lr.ph.us

.lr.ph.us:                                        ; preds = %.lr.ph.us.preheader, %._crit_edge.us
  %.01726.us = phi i32 [ %36, %._crit_edge.us ], [ 0, %.lr.ph.us.preheader ]
  %.val21.us = load i32, ptr %7, align 8, !tbaa !41
  %14 = add nsw i32 %.val21.us, %.01726.us
  %15 = sext i32 %14 to i64
  %16 = getelementptr inbounds ptr, ptr %.val20.val, i64 %15
  %17 = load ptr, ptr %16, align 8, !tbaa !24
  %.val23.us = load i32, ptr %10, align 4, !tbaa !28
  %18 = add nsw i32 %.val23.us, %.01726.us
  %19 = sext i32 %18 to i64
  %20 = getelementptr inbounds ptr, ptr %.val22.val, i64 %19
  %21 = load ptr, ptr %20, align 8, !tbaa !24
  %22 = getelementptr inbounds nuw i8, ptr %17, i64 36
  %23 = load i32, ptr %22, align 4, !tbaa !23
  %24 = sext i32 %23 to i64
  %25 = getelementptr inbounds ptr, ptr %.val18, i64 %24
  %26 = load ptr, ptr %25, align 8, !tbaa !24
  %27 = getelementptr inbounds nuw i8, ptr %21, i64 36
  %28 = load i32, ptr %27, align 4, !tbaa !23
  %29 = sext i32 %28 to i64
  %30 = getelementptr inbounds ptr, ptr %.val18, i64 %29
  %31 = load ptr, ptr %30, align 8, !tbaa !24
  br label %32

32:                                               ; preds = %.lr.ph.us, %32
  %indvars.iv = phi i64 [ 0, %.lr.ph.us ], [ %indvars.iv.next, %32 ]
  %33 = getelementptr inbounds nuw i32, ptr %26, i64 %indvars.iv
  %34 = load i32, ptr %33, align 4, !tbaa !25
  %35 = getelementptr inbounds nuw i32, ptr %31, i64 %indvars.iv
  store i32 %34, ptr %35, align 4, !tbaa !25
  %indvars.iv.next = add nuw nsw i64 %indvars.iv, 1
  %exitcond.not = icmp eq i64 %indvars.iv.next, %wide.trip.count
  br i1 %exitcond.not, label %._crit_edge.us, label %32, !llvm.loop !52

._crit_edge.us:                                   ; preds = %32
  %36 = add nuw nsw i32 %.01726.us, 1
  %.val19.us = load i32, ptr %4, align 8, !tbaa !26
  %37 = icmp slt i32 %36, %.val19.us
  br i1 %37, label %.lr.ph.us, label %.critedge, !llvm.loop !53

.critedge:                                        ; preds = %._crit_edge.us, %.lr.ph28, %3
  ret void
}